; Function Attrs: mustprogress nounwind uwtable
define dso_local void @_ZN4llvm16LTOCodeGenerator9emitErrorERKNSt7__cxx1112basic_stringIcSt11char_traitsIcESaIcEEE(ptr noundef nonnull readonly align 8 captures(none) dereferenceable(1680) %0, ptr noundef nonnull align 8 dereferenceable(32) %1) local_unnamed_addr #1 align 2 {
  %3 = alloca %"class.(anonymous namespace)::LTODiagnosticInfo", align 8
  %4 = alloca %"class.llvm::Twine", align 8
  %5 = getelementptr inbounds nuw i8, ptr %0, i64 240
  %6 = load ptr, ptr %5, align 8
  %.not = icmp eq ptr %6, null
  br i1 %.not, label %11, label %7

7:                                                ; preds = %2
  %8 = tail call noundef ptr @_ZNKSt7__cxx1112basic_stringIcSt11char_traitsIcESaIcEE5c_strEv(ptr noundef nonnull align 8 dereferenceable(32) %1) #23
  %9 = getelementptr inbounds nuw i8, ptr %0, i64 248
  %10 = load ptr, ptr %9, align 8
  tail call void %6(i32 noundef 0, ptr noundef %8, ptr noundef %10) #23
  br label %18

11:                                               ; preds = %2
  %12 = load ptr, ptr %0, align 8
  %13 = getelementptr inbounds nuw i8, ptr %4, i64 32
  store i8 4, ptr %13, align 8
  %14 = getelementptr inbounds nuw i8, ptr %4, i64 33
  store i8 1, ptr %14, align 1
  store ptr %1, ptr %4, align 8
  %15 = getelementptr inbounds nuw i8, ptr %3, i64 8
  store i32 3, ptr %15, align 8
  %16 = getelementptr inbounds nuw i8, ptr %3, i64 12
  store i8 0, ptr %16, align 4
  store ptr getelementptr inbounds nuw inrange(-16, 32) (i8, ptr @_ZTVN12_GLOBAL__N_117LTODiagnosticInfoE, i64 16), ptr %3, align 8
  %17 = getelementptr inbounds nuw i8, ptr %3, i64 16
  store ptr %4, ptr %17, align 8
  call void @_ZN4llvm11LLVMContext8diagnoseERKNS_14DiagnosticInfoE(ptr noundef nonnull align 8 dereferenceable(8) %12, ptr noundef nonnull align 8 dereferenceable(13) %3) #23
  br label %18

18:                                               ; preds = %11, %7
  ret void
}